target datalayout = "e-m:e-p270:32:32-p271:32:32-p272:64:64-i64:64-i128:128-f80:128-n8:16:32:64-S128"
target triple = "x86_64-pc-linux-gnu"

%struct.algo_time_t = type { i32, i32 }

@HUFv06_decompress.decompress = internal constant [3 x ptr] [ptr @HUFv06_decompress4X2, ptr @HUFv06_decompress4X4, ptr null], align 16

; Function Attrs: nounwind uwtable
define i64 @HUFv06_decompress(ptr noundef %0, i64 noundef %1, ptr noundef %2, i64 noundef %3) #0 {
  %5 = alloca i64, align 8
  %6 = alloca ptr, align 8
  %7 = alloca i64, align 8
  %8 = alloca ptr, align 8
  %9 = alloca i64, align 8
  %10 = alloca [3 x i32], align 4
  %11 = alloca i32, align 4
  %12 = alloca i32, align 4
  %13 = alloca i32, align 4
  %14 = alloca i32, align 4
  %15 = alloca i32, align 4
  store ptr %0, ptr %6, align 8, !tbaa !12
  store i64 %1, ptr %7, align 8, !tbaa !3
  store ptr %2, ptr %8, align 8, !tbaa !12
  store i64 %3, ptr %9, align 8, !tbaa !3
  call void @llvm.lifetime.start.p0(i64 12, ptr %10) #10
  %16 = load i64, ptr %7, align 8, !tbaa !3
  %17 = icmp eq i64 %16, 0
  br i1 %17, label %18, label %19

18:                                               ; preds = %4
  store i64 -70, ptr %5, align 8
  store i32 1, ptr %11, align 4
  br label %111

19:                                               ; preds = %4
  %20 = load i64, ptr %9, align 8, !tbaa !3
  %21 = load i64, ptr %7, align 8, !tbaa !3
  %22 = icmp ugt i64 %20, %21
  br i1 %22, label %23, label %24

23:                                               ; preds = %19
  store i64 -20, ptr %5, align 8
  store i32 1, ptr %11, align 4
  br label %111

24:                                               ; preds = %19
  %25 = load i64, ptr %9, align 8, !tbaa !3
  %26 = load i64, ptr %7, align 8, !tbaa !3
  %27 = icmp eq i64 %25, %26
  br i1 %27, label %28, label %33

28:                                               ; preds = %24
  %29 = load ptr, ptr %6, align 8, !tbaa !12
  %30 = load ptr, ptr %8, align 8, !tbaa !12
  %31 = load i64, ptr %7, align 8, !tbaa !3
  call void @llvm.memcpy.p0.p0.i64(ptr align 1 %29, ptr align 1 %30, i64 %31, i1 false)
  %32 = load i64, ptr %7, align 8, !tbaa !3
  store i64 %32, ptr %5, align 8
  store i32 1, ptr %11, align 4
  br label %111

33:                                               ; preds = %24
  %34 = load i64, ptr %9, align 8, !tbaa !3
  %35 = icmp eq i64 %34, 1
  br i1 %35, label %36, label %44

36:                                               ; preds = %33
  %37 = load ptr, ptr %6, align 8, !tbaa !12
  %38 = load ptr, ptr %8, align 8, !tbaa !12
  %39 = load i8, ptr %38, align 1, !tbaa !34
  %40 = zext i8 %39 to i32
  %41 = trunc i32 %40 to i8
  %42 = load i64, ptr %7, align 8, !tbaa !3
  call void @llvm.memset.p0.i64(ptr align 1 %37, i8 %41, i64 %42, i1 false)
  %43 = load i64, ptr %7, align 8, !tbaa !3
  store i64 %43, ptr %5, align 8
  store i32 1, ptr %11, align 4
  br label %111

44:                                               ; preds = %33
  call void @llvm.lifetime.start.p0(i64 4, ptr %12) #10
  %45 = load i64, ptr %9, align 8, !tbaa !3
  %46 = mul i64 %45, 16
  %47 = load i64, ptr %7, align 8, !tbaa !3
  %48 = udiv i64 %46, %47
  %49 = trunc i64 %48 to i32
  store i32 %49, ptr %12, align 4, !tbaa !15
  call void @llvm.lifetime.start.p0(i64 4, ptr %13) #10
  %50 = load i64, ptr %7, align 8, !tbaa !3
  %51 = lshr i64 %50, 8
  %52 = trunc i64 %51 to i32
  store i32 %52, ptr %13, align 4, !tbaa !15
  call void @llvm.lifetime.start.p0(i64 4, ptr %14) #10
  store i32 0, ptr %14, align 4, !tbaa !15
  br label %53

53:                                               ; preds = %79, %44
  %54 = load i32, ptr %14, align 4, !tbaa !15
  %55 = icmp ult i32 %54, 3
  br i1 %55, label %56, label %82

56:                                               ; preds = %53
  %57 = load i32, ptr %12, align 4, !tbaa !15
  %58 = zext i32 %57 to i64
  %59 = getelementptr inbounds nuw [16 x [3 x %struct.algo_time_t]], ptr @algoTime, i64 0, i64 %58
  %60 = load i32, ptr %14, align 4, !tbaa !15
  %61 = zext i32 %60 to i64
  %62 = getelementptr inbounds nuw [3 x %struct.algo_time_t], ptr %59, i64 0, i64 %61
  %63 = getelementptr inbounds nuw %struct.algo_time_t, ptr %62, i32 0, i32 0
  %64 = load i32, ptr %63, align 8, !tbaa !71
  %65 = load i32, ptr %12, align 4, !tbaa !15
  %66 = zext i32 %65 to i64
  %67 = getelementptr inbounds nuw [16 x [3 x %struct.algo_time_t]], ptr @algoTime, i64 0, i64 %66
  %68 = load i32, ptr %14, align 4, !tbaa !15
  %69 = zext i32 %68 to i64
  %70 = getelementptr inbounds nuw [3 x %struct.algo_time_t], ptr %67, i64 0, i64 %69
  %71 = getelementptr inbounds nuw %struct.algo_time_t, ptr %70, i32 0, i32 1
  %72 = load i32, ptr %71, align 4, !tbaa !73
  %73 = load i32, ptr %13, align 4, !tbaa !15
  %74 = mul i32 %72, %73
  %75 = add i32 %64, %74
  %76 = load i32, ptr %14, align 4, !tbaa !15
  %77 = zext i32 %76 to i64
  %78 = getelementptr inbounds nuw [3 x i32], ptr %10, i64 0, i64 %77
  store i32 %75, ptr %78, align 4, !tbaa !15
  br label %79

79:                                               ; preds = %56
  %80 = load i32, ptr %14, align 4, !tbaa !15
  %81 = add i32 %80, 1
  store i32 %81, ptr %14, align 4, !tbaa !15
  br label %53, !llvm.loop !74

82:                                               ; preds = %53
  call void @llvm.lifetime.end.p0(i64 4, ptr %14) #10
  call void @llvm.lifetime.end.p0(i64 4, ptr %13) #10
  call void @llvm.lifetime.end.p0(i64 4, ptr %12) #10
  %83 = getelementptr inbounds [3 x i32], ptr %10, i64 0, i64 1
  %84 = load i32, ptr %83, align 4, !tbaa !15
  %85 = lshr i32 %84, 4
  %86 = getelementptr inbounds [3 x i32], ptr %10, i64 0, i64 1
  %87 = load i32, ptr %86, align 4, !tbaa !15
  %88 = add i32 %87, %85
  store i32 %88, ptr %86, align 4, !tbaa !15
  %89 = getelementptr inbounds [3 x i32], ptr %10, i64 0, i64 2
  %90 = load i32, ptr %89, align 4, !tbaa !15
  %91 = lshr i32 %90, 3
  %92 = getelementptr inbounds [3 x i32], ptr %10, i64 0, i64 2
  %93 = load i32, ptr %92, align 4, !tbaa !15
  %94 = add i32 %93, %91
  store i32 %94, ptr %92, align 4, !tbaa !15
  call void @llvm.lifetime.start.p0(i64 4, ptr %15) #10
  store i32 0, ptr %15, align 4, !tbaa !15
  %95 = getelementptr inbounds [3 x i32], ptr %10, i64 0, i64 1
  %96 = load i32, ptr %95, align 4, !tbaa !15
  %97 = getelementptr inbounds [3 x i32], ptr %10, i64 0, i64 0
  %98 = load i32, ptr %97, align 4, !tbaa !15
  %99 = icmp ult i32 %96, %98
  br i1 %99, label %100, label %101

100:                                              ; preds = %82
  store i32 1, ptr %15, align 4, !tbaa !15
  br label %101

101:                                              ; preds = %100, %82
  %102 = load i32, ptr %15, align 4, !tbaa !15
  %103 = zext i32 %102 to i64
  %104 = getelementptr inbounds nuw [3 x ptr], ptr @HUFv06_decompress.decompress, i64 0, i64 %103
  %105 = load ptr, ptr %104, align 8, !tbaa !12
  %106 = load ptr, ptr %6, align 8, !tbaa !12
  %107 = load i64, ptr %7, align 8, !tbaa !3
  %108 = load ptr, ptr %8, align 8, !tbaa !12
  %109 = load i64, ptr %9, align 8, !tbaa !3
  %110 = call i64 %105(ptr noundef %106, i64 noundef %107, ptr noundef %108, i64 noundef %109)
  store i64 %110, ptr %5, align 8
  store i32 1, ptr %11, align 4
  call void @llvm.lifetime.end.p0(i64 4, ptr %15) #10
  br label %111

111:                                              ; preds = %101, %36, %28, %23, %18
  call void @llvm.lifetime.end.p0(i64 12, ptr %10) #10
  %112 = load i64, ptr %5, align 8
  ret i64 %112
}